; Function Attrs: mustprogress uwtable
define noundef ptr @_ZNK7rocksdb15BlockBasedTable16NewIndexIteratorERKNS_11ReadOptionsEbPNS_14IndexBlockIterEPNS_10GetContextEPNS_23BlockCacheLookupContextE(ptr nocapture noundef nonnull readonly align 8 dereferenceable(24) %this, ptr noundef nonnull align 8 dereferenceable(154) %read_options, i1 noundef zeroext %disable_prefix_seek, ptr noundef %input_iter, ptr noundef %get_context, ptr noundef %lookup_context) local_unnamed_addr #3 align 2 {
entry:
  %rep_ = getelementptr inbounds i8, ptr %this, i64 8
  %0 = load ptr, ptr %rep_, align 8
  %index_reader = getelementptr inbounds i8, ptr %0, i64 416
  %1 = load ptr, ptr %index_reader, align 8
  %vtable = load ptr, ptr %1, align 8
  %vfn = getelementptr inbounds i8, ptr %vtable, i64 16
  %2 = load ptr, ptr %vfn, align 8
  %call2 = tail call noundef ptr %2(ptr noundef nonnull align 8 dereferenceable(8) %1, ptr noundef nonnull align 8 dereferenceable(154) %read_options, i1 noundef zeroext %disable_prefix_seek, ptr noundef %input_iter, ptr noundef %get_context, ptr noundef %lookup_context)
  ret ptr %call2
}